target datalayout = "e-m:e-p270:32:32-p271:32:32-p272:64:64-i64:64-i128:128-f80:128-n8:16:32:64-S128"
target triple = "x86_64-unknown-linux-gnu"

%"class.icu_75::LocaleBuilder" = type { %"class.icu_75::UObject", i32, [9 x i8], [5 x i8], [4 x i8], ptr, ptr }
%"class.icu_75::UObject" = type { ptr }

@_ZTVN6icu_7513LocaleBuilderE = unnamed_addr constant { [5 x ptr] } { [5 x ptr] [ptr null, ptr @_ZTIN6icu_7513LocaleBuilderE, ptr @_ZN6icu_7513LocaleBuilderD1Ev, ptr @_ZN6icu_7513LocaleBuilderD0Ev, ptr @_ZNK6icu_757UObject17getDynamicClassIDEv] }, align 8
@_ZTVN6icu_757UObjectE = external unnamed_addr constant { [5 x ptr] }, align 8

; Function Attrs: mustprogress nounwind uwtable
define linkonce_odr void @_ZN6icu_757UObjectC2Ev(ptr noundef nonnull align 8 dereferenceable(8) %this) unnamed_addr #0 comdat align 2 {
entry:
  %this.addr = alloca ptr, align 8
  store ptr %this, ptr %this.addr, align 8
  %this1 = load ptr, ptr %this.addr, align 8
  store ptr getelementptr inbounds ({ [5 x ptr] }, ptr @_ZTVN6icu_757UObjectE, i32 0, i32 0, i32 2), ptr %this1, align 8
  ret void
}

; Function Attrs: mustprogress nounwind uwtable
define void @_ZN6icu_7513LocaleBuilderC2Ev(ptr noundef nonnull align 8 dereferenceable(48) %this) unnamed_addr #0 align 2 {
entry:
  %this.addr = alloca ptr, align 8
  store ptr %this, ptr %this.addr, align 8
  %this1 = load ptr, ptr %this.addr, align 8
  %0 = getelementptr inbounds i8, ptr %this1, i64 0
  call void @llvm.memset.p0.i64(ptr align 8 %0, i8 0, i64 8, i1 false)
  call void @_ZN6icu_757UObjectC2Ev(ptr noundef nonnull align 8 dereferenceable(8) %this1) #9
  store ptr getelementptr inbounds ({ [5 x ptr] }, ptr @_ZTVN6icu_7513LocaleBuilderE, i32 0, i32 0, i32 2), ptr %this1, align 8
  %status_ = getelementptr inbounds %"class.icu_75::LocaleBuilder", ptr %this1, i32 0, i32 1
  store i32 0, ptr %status_, align 8
  %language_ = getelementptr inbounds %"class.icu_75::LocaleBuilder", ptr %this1, i32 0, i32 2
  call void @llvm.memset.p0.i64(ptr align 4 %language_, i8 0, i64 9, i1 false)
  %script_ = getelementptr inbounds %"class.icu_75::LocaleBuilder", ptr %this1, i32 0, i32 3
  call void @llvm.memset.p0.i64(ptr align 1 %script_, i8 0, i64 5, i1 false)
  %region_ = getelementptr inbounds %"class.icu_75::LocaleBuilder", ptr %this1, i32 0, i32 4
  call void @llvm.memset.p0.i64(ptr align 2 %region_, i8 0, i64 4, i1 false)
  %variant_ = getelementptr inbounds %"class.icu_75::LocaleBuilder", ptr %this1, i32 0, i32 5
  store ptr null, ptr %variant_, align 8
  %extensions_ = getelementptr inbounds %"class.icu_75::LocaleBuilder", ptr %this1, i32 0, i32 6
  store ptr null, ptr %extensions_, align 8
  %language_2 = getelementptr inbounds %"class.icu_75::LocaleBuilder", ptr %this1, i32 0, i32 2
  %arrayidx = getelementptr inbounds [9 x i8], ptr %language_2, i64 0, i64 0
  store i8 0, ptr %arrayidx, align 4
  %script_3 = getelementptr inbounds %"class.icu_75::LocaleBuilder", ptr %this1, i32 0, i32 3
  %arrayidx4 = getelementptr inbounds [5 x i8], ptr %script_3, i64 0, i64 0
  store i8 0, ptr %arrayidx4, align 1
  %region_5 = getelementptr inbounds %"class.icu_75::LocaleBuilder", ptr %this1, i32 0, i32 4
  %arrayidx6 = getelementptr inbounds [4 x i8], ptr %region_5, i64 0, i64 0
  store i8 0, ptr %arrayidx6, align 2
  ret void
}