; Function Attrs: mustprogress nofree norecurse nosync nounwind willreturn memory(argmem: write) uwtable
define void @_ZN6icu_7513LocaleBuilderC2Ev(ptr nocapture noundef nonnull writeonly align 8 dereferenceable(48) %this) unnamed_addr #6 align 2 {
entry:
  store ptr getelementptr inbounds ({ [5 x ptr] }, ptr @_ZTVN6icu_7513LocaleBuilderE, i64 0, i32 0, i64 2), ptr %this, align 8
  %status_ = getelementptr inbounds i8, ptr %this, i64 8
  %variant_ = getelementptr inbounds i8, ptr %this, i64 32
  tail call void @llvm.memset.p0.i64(ptr noundef nonnull align 8 dereferenceable(22) %status_, i8 0, i64 22, i1 false)
  tail call void @llvm.memset.p0.i64(ptr noundef nonnull align 8 dereferenceable(16) %variant_, i8 0, i64 16, i1 false)
  ret void
}